target datalayout = "e-m:e-p270:32:32-p271:32:32-p272:64:64-i64:64-i128:128-f80:128-n8:16:32:64-S128"
target triple = "x86_64-unknown-linux-gnu"

%"class.sat::literal" = type { i32 }
%class.params_ref = type { ptr }
%class.symbol = type { ptr }
%"class.sat::cut_simplifier" = type { ptr, %"struct.sat::cut_simplifier::stats", %"struct.sat::cut_simplifier::config", %"class.sat::aig_cuts", i32, %class.svector, ptr, %class.hashtable }
%"struct.sat::cut_simplifier::stats" = type { i32, i32, i32, i32, i32, i32, i32, i32, i32, i32, i32, i32, i32 }
%"struct.sat::cut_simplifier::config" = type { i8, i8, i8, i8, i8, i8, i8 }
%"class.sat::aig_cuts" = type { %class.random_gen, %"struct.sat::aig_cuts::config", %class.vector, %class.svector, %class.region, %"class.sat::cut_set", %"class.sat::cut_set", %"class.sat::cut_set", %class.vector.1, %class.svector.2, %class.svector.2, i32, i32, %class.svector.4, i32, %"class.std::function", %"class.std::function", %"class.std::function.6", %"class.std::function.6", %class.svector, [6 x ptr], [6 x i64], [6 x %"class.sat::literal"] }
%class.random_gen = type { i32 }
%"struct.sat::aig_cuts::config" = type <{ i32, i32, i32, i8, [3 x i8] }>
%class.vector = type { ptr }
%class.region = type { ptr, ptr, ptr, ptr, ptr }
%"class.sat::cut_set" = type { i32, ptr, i32, i32, ptr }
%class.vector.1 = type { ptr }
%class.svector.2 = type { %class.vector.3 }
%class.vector.3 = type { ptr }
%class.svector.4 = type { %class.vector.5 }
%class.vector.5 = type { ptr }
%"class.std::function" = type { %"class.std::_Function_base", ptr }
%"class.std::_Function_base" = type { %"union.std::_Any_data", ptr }
%"union.std::_Any_data" = type { %"union.std::_Nocopy_types" }
%"union.std::_Nocopy_types" = type { { i64, i64 } }
%"class.std::function.6" = type { %"class.std::_Function_base", ptr }
%class.svector = type { %class.vector.0 }
%class.vector.0 = type { ptr }
%class.hashtable = type { %class.core_hashtable.base, [4 x i8] }
%class.core_hashtable.base = type <{ ptr, i32, i32, i32 }>
%"struct.sat::config" = type <{ i64, i32, i32, i32, i8, [3 x i8], i32, i32, double, i32, i8, [3 x i8], i32, i8, [3 x i8], i32, [4 x i8], double, double, i32, i32, double, double, i32, [4 x i8], %class.symbol, double, i32, i32, i8, [3 x i8], i32, i32, i8, [3 x i8], i32, i8, [3 x i8], i32, i8, [3 x i8], i32, i8, i8, i8, i8, i32, i8, i8, i8, i8, i8, i8, i8, i8, i32, i8, i8, i8, i8, i32, double, i32, [4 x i8], double, double, double, double, i32, i8, i8, [2 x i8], double, i8, i8, [2 x i8], i32, double, i32, i32, i32, i32, i32, i32, i32, i32, i8, i8, i8, i8, i32, i32, i8, i8, i8, i8, i8, i8, i8, [5 x i8], %class.symbol, i8, i8, i8, i8, i8, i8, [2 x i8], i32, i32, i32, i8, [3 x i8], double, double, double, double, double, i8, [7 x i8] }>
%"class.sat::solver" = type { %"class.sat::solver_core", i8, [7 x i8], %"struct.sat::config", %"struct.sat::stats", %class.scoped_ptr, %class.scoped_ptr.8, ptr, %"class.sat::drat", [2 x %"class.sat::clause_allocator"], i8, %class.random_gen, %"class.sat::cleaner", %class.svector.19, %"class.sat::model_converter", i8, %"class.sat::simplifier", %"class.sat::scc", %"class.sat::asymm_branch", %"class.sat::probing", i8, [7 x i8], %"class.sat::mus", %"class.sat::binspr", i8, i8, [6 x i8], %"class.sat::justification", %"class.sat::literal", %class.ptr_vector.26, %class.ptr_vector.26, i32, %class.svector.2, %class.svector.2, %class.svector.2, %class.svector.2, %class.vector.44, %class.svector.19, %class.svector.45, %class.svector.22, %class.svector.22, %class.svector.22, %class.svector.22, %class.svector.22, %class.svector.2, %class.svector.2, i32, %class.svector, %class.svector.2, i32, %class.svector.47, %class.svector.47, %class.svector.47, %class.svector.47, %class.svector.47, i32, double, %class.svector.22, %class.svector.22, %class.svector.22, %class.svector.30, i32, i32, i32, i32, i32, i32, %"struct.sat::backoff", i32, i32, %"struct.sat::backoff", %"struct.sat::backoff", %class.var_queue, i32, i32, i32, %class.ema, %class.ema, %class.ema, %class.ema, %class.ema, %class.svector, %class.svector.32, %"class.std::__cxx11::basic_string", i8, %class.visit_helper, %class.svector.49, %class.scoped_limit_trail, %class.stopwatch, %class.params_ref, %"struct.sat::no_drat_params", %class.scoped_ptr.42, %class.svector, %"class.sat::literal_set", %"class.sat::literal_set", %class.svector, i32, i32, i32, i32, i8, ptr, ptr, %class.statistics, i32, i32, i32, i32, i8, i32, i32, i32, i32, i32, i32, i32, double, i32, double, i8, i8, %class.svector, i8, %class.svector.47, i32, i32, i32, %class.svector, %class.svector, %class.svector.30, %class.svector.2, %class.approx_set_tpl, %class.svector, %class.svector, %class.vector.18, %class.svector, %class.svector.40, %class.u_map, %class.svector }
%"class.sat::solver_core" = type { ptr, ptr }
%"struct.sat::stats" = type { i32, i32, i32, i32, i32, i32, i32, i32, i32, i32, i32, i32, i32, i32, i32, i32, i32, i32, i32, i32, i32 }
%class.scoped_ptr = type { ptr }
%class.scoped_ptr.8 = type { ptr }
%"class.sat::drat" = type { ptr, %class.svector.9, ptr, %"class.sat::clause_allocator", ptr, ptr, %class.svector.14, %class.svector.16, %class.vector.18, %class.svector.19, i8, i8, i8, i8, i8, %"struct.sat::drat::stats" }
%class.svector.9 = type { %class.vector.10 }
%class.vector.10 = type { ptr }
%"class.sat::clause_allocator" = type { %class.sat_allocator, %class.id_gen }
%class.sat_allocator = type { ptr, i64, %class.ptr_vector, ptr, [65 x %class.ptr_vector.12] }
%class.ptr_vector = type { %class.vector.11 }
%class.vector.11 = type { ptr }
%class.ptr_vector.12 = type { %class.vector.13 }
%class.vector.13 = type { ptr }
%class.id_gen = type { i32, %class.svector.2 }
%class.svector.14 = type { %class.vector.15 }
%class.vector.15 = type { ptr }
%class.svector.16 = type { %class.vector.17 }
%class.vector.17 = type { ptr }
%"struct.sat::drat::stats" = type { i32, i32, i32, i32 }
%"class.sat::cleaner" = type { ptr, i32, i32, i32, i32 }
%"class.sat::model_converter" = type { %class.vector.21, i32, %class.svector.22, ptr, %class.svector.4 }
%class.vector.21 = type { ptr }
%"class.sat::simplifier" = type { ptr, i32, %"class.sat::use_list", %"class.sat::ext_use_list", %"class.sat::clause_set", %class.svector.28, i32, %class.tracked_uint_set, i8, %"class.sat::tmp_clause", %class.svector.30, i32, i32, i8, i8, i8, i8, i32, i8, i8, i32, i8, i32, i8, i8, i32, i32, i32, i32, i32, i32, i32, i32, i32, i32, i8, i32, i8, i8, i32, i32, i32, i32, i32, i32, i32, i32, i32, i32, i32, i8, i32, %class.ptr_vector.26, %class.svector, %class.svector.32, %class.svector.32, %class.svector }
%"class.sat::use_list" = type { %class.vector.24 }
%class.vector.24 = type { ptr }
%"class.sat::ext_use_list" = type { %class.vector.25 }
%class.vector.25 = type { ptr }
%"class.sat::clause_set" = type { %class.svector.2, %class.ptr_vector.26 }
%class.svector.28 = type { %class.vector.29 }
%class.vector.29 = type { ptr }
%class.tracked_uint_set = type { %class.svector.30, %class.svector.2 }
%"class.sat::tmp_clause" = type { ptr }
%"class.sat::scc" = type { ptr, i8, i8, i32, i32, %"class.sat::big" }
%"class.sat::big" = type { ptr, i32, %class.vector.34, %class.svector.22, %class.svector.35, %class.svector.35, %class.svector, %class.svector, i8, i8, %class.vector.34 }
%class.svector.35 = type { %class.vector.36 }
%class.vector.36 = type { ptr }
%class.vector.34 = type { ptr }
%"class.sat::asymm_branch" = type { ptr, %class.params_ref, i64, %class.random_gen, i32, i32, i8, i32, i32, i8, i8, i64, i32, i32, i32, %class.svector, %class.svector, %class.svector.37, %class.svector.37, %class.svector, %class.svector }
%class.svector.37 = type { %class.vector.38 }
%class.vector.38 = type { ptr }
%"class.sat::probing" = type { ptr, i32, %"class.sat::literal_set", %class.svector, i32, i8, i32, i8, i8, i64, i32, %class.vector.39, %class.svector.40, %"class.sat::big" }
%class.vector.39 = type { ptr }
%"class.sat::mus" = type <{ ptr, %class.svector, %class.svector, i8, [7 x i8], %class.svector.19, i32, [4 x i8] }>
%"class.sat::binspr" = type <{ ptr, %class.scoped_ptr.42, i32, i32, %class.vector.43, i32, i32, %class.svector.22, %class.svector.22, %class.svector, %class.svector, i32, i32, i32, i32, i32, [4 x i32], [5 x i32], [5 x i32], [4 x i8] }>
%class.vector.43 = type { ptr }
%"class.sat::justification" = type <{ i32, [4 x i8], i64, i32, [4 x i8] }>
%class.ptr_vector.26 = type { %class.vector.27 }
%class.vector.27 = type { ptr }
%class.vector.44 = type { ptr }
%class.svector.19 = type { %class.vector.20 }
%class.vector.20 = type { ptr }
%class.svector.45 = type { %class.vector.46 }
%class.vector.46 = type { ptr }
%class.svector.22 = type { %class.vector.23 }
%class.vector.23 = type { ptr }
%"struct.sat::backoff" = type { i32, i32, i32, i32, i32 }
%class.var_queue = type { %class.heap }
%class.heap = type { %"struct.var_queue<svector<unsigned int>>::lt", %class.svector.35, %class.svector.35 }
%"struct.var_queue<svector<unsigned int>>::lt" = type { ptr }
%class.ema = type { double, double, double, i32, i32 }
%class.svector.32 = type { %class.vector.33 }
%class.vector.33 = type { ptr }
%"class.std::__cxx11::basic_string" = type { %"struct.std::__cxx11::basic_string<char>::_Alloc_hider", i64, %union.anon }
%"struct.std::__cxx11::basic_string<char>::_Alloc_hider" = type { ptr }
%union.anon = type { i64, [8 x i8] }
%class.visit_helper = type { %class.svector.2, i32, i32 }
%class.svector.49 = type { %class.vector.50 }
%class.vector.50 = type { ptr }
%class.scoped_limit_trail = type { %class.svector.2, i32, i32 }
%class.stopwatch = type <{ %"class.std::chrono::time_point", %"class.std::chrono::duration", i8, [7 x i8] }>
%"class.std::chrono::time_point" = type { %"class.std::chrono::duration" }
%"class.std::chrono::duration" = type { i64 }
%"struct.sat::no_drat_params" = type { %class.params_ref }
%class.scoped_ptr.42 = type { ptr }
%"class.sat::literal_set" = type { %class.tracked_uint_set }
%class.statistics = type { %class.svector.51, %class.svector.53 }
%class.svector.51 = type { %class.vector.52 }
%class.vector.52 = type { ptr }
%class.svector.53 = type { %class.vector.54 }
%class.vector.54 = type { ptr }
%class.svector.47 = type { %class.vector.48 }
%class.vector.48 = type { ptr }
%class.svector.30 = type { %class.vector.31 }
%class.vector.31 = type { ptr }
%class.approx_set_tpl = type { i32 }
%class.vector.18 = type { ptr }
%class.svector.40 = type { %class.vector.41 }
%class.vector.41 = type { ptr }
%class.u_map = type { %class.map }
%class.map = type { %class.table2map }
%class.table2map = type { %class.core_hashtable.55 }
%class.core_hashtable.55 = type <{ ptr, i32, i32, i32, [4 x i8] }>
%"struct.sat::cut_simplifier::bin_rel" = type { i32, i32, i32 }
%"class.sat::status" = type { i32, i32, ptr }

@.str.36 = private unnamed_addr constant [112 x i8] c"generated/home/dtcxzyw/WorkSpace/Projects/compilers/llvm-opt-benchmark/bench/z3/z3/src/sat/sat_cut_simplifier.h\00", align 1
@.str.37 = private unnamed_addr constant [29 x i8] c"UNEXPECTED CODE WAS REACHED.\00", align 1

; Function Attrs: mustprogress nounwind uwtable
define linkonce_odr hidden void @_ZN3sat6statusC2ENS0_2stEiPKNS_10proof_hintE(ptr noundef nonnull align 8 dereferenceable(16) %this, i32 noundef %s, i32 noundef %o, ptr noundef %ps) unnamed_addr #4 comdat align 2 {
entry:
  %this.addr = alloca ptr, align 8
  %s.addr = alloca i32, align 4
  %o.addr = alloca i32, align 4
  %ps.addr = alloca ptr, align 8
  store ptr %this, ptr %this.addr, align 8
  store i32 %s, ptr %s.addr, align 4
  store i32 %o, ptr %o.addr, align 4
  store ptr %ps, ptr %ps.addr, align 8
  %this1 = load ptr, ptr %this.addr, align 8
  %m_st = getelementptr inbounds %"class.sat::status", ptr %this1, i32 0, i32 0
  %0 = load i32, ptr %s.addr, align 4
  store i32 %0, ptr %m_st, align 8
  %m_orig = getelementptr inbounds %"class.sat::status", ptr %this1, i32 0, i32 1
  %1 = load i32, ptr %o.addr, align 4
  store i32 %1, ptr %m_orig, align 4
  %m_hint = getelementptr inbounds %"class.sat::status", ptr %this1, i32 0, i32 2
  %2 = load ptr, ptr %ps.addr, align 8
  store ptr %2, ptr %m_hint, align 8
  ret void
}

; Function Attrs: mustprogress uwtable
define linkonce_odr hidden void @_ZN3sat6status9redundantEv(ptr noalias sret(%"class.sat::status") align 8 %agg.result) #5 comdat align 2 {
entry:
  %result.ptr = alloca ptr, align 8
  store ptr %agg.result, ptr %result.ptr, align 8
  call void @_ZN3sat6statusC2ENS0_2stEiPKNS_10proof_hintE(ptr noundef nonnull align 8 dereferenceable(16) %agg.result, i32 noundef 2, i32 noundef -1, ptr noundef null)
  ret void
}

; Function Attrs: mustprogress nounwind uwtable
define linkonce_odr hidden void @_ZN3sat7literalC2Ejb(ptr noundef nonnull align 4 dereferenceable(4) %this, i32 noundef %v, i1 noundef zeroext %_sign) unnamed_addr #4 comdat align 2 {
entry:
  %this.addr = alloca ptr, align 8
  %v.addr = alloca i32, align 4
  %_sign.addr = alloca i8, align 1
  store ptr %this, ptr %this.addr, align 8
  store i32 %v, ptr %v.addr, align 4
  %frombool = zext i1 %_sign to i8
  store i8 %frombool, ptr %_sign.addr, align 1
  %this1 = load ptr, ptr %this.addr, align 8
  %m_val = getelementptr inbounds %"class.sat::literal", ptr %this1, i32 0, i32 0
  %0 = load i32, ptr %v.addr, align 4
  %shl = shl i32 %0, 1
  %1 = load i8, ptr %_sign.addr, align 1
  %tobool = trunc i8 %1 to i1
  %conv = zext i1 %tobool to i32
  %add = add i32 %shl, %conv
  store i32 %add, ptr %m_val, align 4
  ret void
}

; Function Attrs: mustprogress uwtable
define hidden void @_ZN3sat14cut_simplifier12track_binaryENS_7literalES1_(ptr noundef nonnull align 8 dereferenceable(600) %this, i32 %u.coerce, i32 %v.coerce) #5 align 2 {
entry:
  %u = alloca %"class.sat::literal", align 4
  %v = alloca %"class.sat::literal", align 4
  %this.addr = alloca ptr, align 8
  %agg.tmp = alloca %"class.sat::literal", align 4
  %agg.tmp5 = alloca %"class.sat::literal", align 4
  %agg.tmp6 = alloca %"class.sat::status", align 8
  %coerce.dive = getelementptr inbounds %"class.sat::literal", ptr %u, i32 0, i32 0
  store i32 %u.coerce, ptr %coerce.dive, align 4
  %coerce.dive1 = getelementptr inbounds %"class.sat::literal", ptr %v, i32 0, i32 0
  store i32 %v.coerce, ptr %coerce.dive1, align 4
  store ptr %this, ptr %this.addr, align 8
  %this2 = load ptr, ptr %this.addr, align 8
  %s = getelementptr inbounds %"class.sat::cut_simplifier", ptr %this2, i32 0, i32 0
  %0 = load ptr, ptr %s, align 8
  %m_config = getelementptr inbounds %"class.sat::solver", ptr %0, i32 0, i32 3
  %m_drat = getelementptr inbounds %"struct.sat::config", ptr %m_config, i32 0, i32 96
  %1 = load i8, ptr %m_drat, align 8
  %tobool = trunc i8 %1 to i1
  br i1 %tobool, label %if.then, label %if.end

if.then:                                          ; preds = %entry
  %s3 = getelementptr inbounds %"class.sat::cut_simplifier", ptr %this2, i32 0, i32 0
  %2 = load ptr, ptr %s3, align 8
  %m_drat4 = getelementptr inbounds %"class.sat::solver", ptr %2, i32 0, i32 8
  call void @llvm.memcpy.p0.p0.i64(ptr align 4 %agg.tmp, ptr align 4 %u, i64 4, i1 false)
  call void @llvm.memcpy.p0.p0.i64(ptr align 4 %agg.tmp5, ptr align 4 %v, i64 4, i1 false)
  call void @_ZN3sat6status9redundantEv(ptr sret(%"class.sat::status") align 8 %agg.tmp6)
  %coerce.dive7 = getelementptr inbounds %"class.sat::literal", ptr %agg.tmp, i32 0, i32 0
  %3 = load i32, ptr %coerce.dive7, align 4
  %coerce.dive8 = getelementptr inbounds %"class.sat::literal", ptr %agg.tmp5, i32 0, i32 0
  %4 = load i32, ptr %coerce.dive8, align 4
  call void @_ZN3sat4drat3addENS_7literalES1_NS_6statusE(ptr noundef nonnull align 8 dereferenceable(664) %m_drat4, i32 %3, i32 %4, ptr noundef %agg.tmp6)
  br label %if.end

if.end:                                           ; preds = %if.then, %entry
  ret void
}

; Function Attrs: mustprogress uwtable
define linkonce_odr hidden void @_ZNK3sat14cut_simplifier7bin_rel9to_binaryERNS_7literalES3_(ptr noundef nonnull align 4 dereferenceable(12) %this, ptr noundef nonnull align 4 dereferenceable(4) %lu, ptr noundef nonnull align 4 dereferenceable(4) %lv) #5 comdat align 2 {
entry:
  %this.addr = alloca ptr, align 8
  %lu.addr = alloca ptr, align 8
  %lv.addr = alloca ptr, align 8
  %ref.tmp = alloca %"class.sat::literal", align 4
  %ref.tmp2 = alloca %"class.sat::literal", align 4
  %ref.tmp4 = alloca %"class.sat::literal", align 4
  %ref.tmp6 = alloca %"class.sat::literal", align 4
  %ref.tmp9 = alloca %"class.sat::literal", align 4
  %ref.tmp11 = alloca %"class.sat::literal", align 4
  %ref.tmp14 = alloca %"class.sat::literal", align 4
  %ref.tmp16 = alloca %"class.sat::literal", align 4
  store ptr %this, ptr %this.addr, align 8
  store ptr %lu, ptr %lu.addr, align 8
  store ptr %lv, ptr %lv.addr, align 8
  %this1 = load ptr, ptr %this.addr, align 8
  %op = getelementptr inbounds %"struct.sat::cut_simplifier::bin_rel", ptr %this1, i32 0, i32 2
  %0 = load i32, ptr %op, align 4
  switch i32 %0, label %sw.default [
    i32 0, label %sw.bb
    i32 1, label %sw.bb3
    i32 2, label %sw.bb8
    i32 3, label %sw.bb13
  ]

sw.bb:                                            ; preds = %entry
  %u = getelementptr inbounds %"struct.sat::cut_simplifier::bin_rel", ptr %this1, i32 0, i32 0
  %1 = load i32, ptr %u, align 4
  call void @_ZN3sat7literalC2Ejb(ptr noundef nonnull align 4 dereferenceable(4) %ref.tmp, i32 noundef %1, i1 noundef zeroext true)
  %2 = load ptr, ptr %lu.addr, align 8
  call void @llvm.memcpy.p0.p0.i64(ptr align 4 %2, ptr align 4 %ref.tmp, i64 4, i1 false)
  %v = getelementptr inbounds %"struct.sat::cut_simplifier::bin_rel", ptr %this1, i32 0, i32 1
  %3 = load i32, ptr %v, align 4
  call void @_ZN3sat7literalC2Ejb(ptr noundef nonnull align 4 dereferenceable(4) %ref.tmp2, i32 noundef %3, i1 noundef zeroext true)
  %4 = load ptr, ptr %lv.addr, align 8
  call void @llvm.memcpy.p0.p0.i64(ptr align 4 %4, ptr align 4 %ref.tmp2, i64 4, i1 false)
  br label %sw.epilog

sw.bb3:                                           ; preds = %entry
  %u5 = getelementptr inbounds %"struct.sat::cut_simplifier::bin_rel", ptr %this1, i32 0, i32 0
  %5 = load i32, ptr %u5, align 4
  call void @_ZN3sat7literalC2Ejb(ptr noundef nonnull align 4 dereferenceable(4) %ref.tmp4, i32 noundef %5, i1 noundef zeroext true)
  %6 = load ptr, ptr %lu.addr, align 8
  call void @llvm.memcpy.p0.p0.i64(ptr align 4 %6, ptr align 4 %ref.tmp4, i64 4, i1 false)
  %v7 = getelementptr inbounds %"struct.sat::cut_simplifier::bin_rel", ptr %this1, i32 0, i32 1
  %7 = load i32, ptr %v7, align 4
  call void @_ZN3sat7literalC2Ejb(ptr noundef nonnull align 4 dereferenceable(4) %ref.tmp6, i32 noundef %7, i1 noundef zeroext false)
  %8 = load ptr, ptr %lv.addr, align 8
  call void @llvm.memcpy.p0.p0.i64(ptr align 4 %8, ptr align 4 %ref.tmp6, i64 4, i1 false)
  br label %sw.epilog

sw.bb8:                                           ; preds = %entry
  %u10 = getelementptr inbounds %"struct.sat::cut_simplifier::bin_rel", ptr %this1, i32 0, i32 0
  %9 = load i32, ptr %u10, align 4
  call void @_ZN3sat7literalC2Ejb(ptr noundef nonnull align 4 dereferenceable(4) %ref.tmp9, i32 noundef %9, i1 noundef zeroext false)
  %10 = load ptr, ptr %lu.addr, align 8
  call void @llvm.memcpy.p0.p0.i64(ptr align 4 %10, ptr align 4 %ref.tmp9, i64 4, i1 false)
  %v12 = getelementptr inbounds %"struct.sat::cut_simplifier::bin_rel", ptr %this1, i32 0, i32 1
  %11 = load i32, ptr %v12, align 4
  call void @_ZN3sat7literalC2Ejb(ptr noundef nonnull align 4 dereferenceable(4) %ref.tmp11, i32 noundef %11, i1 noundef zeroext true)
  %12 = load ptr, ptr %lv.addr, align 8
  call void @llvm.memcpy.p0.p0.i64(ptr align 4 %12, ptr align 4 %ref.tmp11, i64 4, i1 false)
  br label %sw.epilog

sw.bb13:                                          ; preds = %entry
  %u15 = getelementptr inbounds %"struct.sat::cut_simplifier::bin_rel", ptr %this1, i32 0, i32 0
  %13 = load i32, ptr %u15, align 4
  call void @_ZN3sat7literalC2Ejb(ptr noundef nonnull align 4 dereferenceable(4) %ref.tmp14, i32 noundef %13, i1 noundef zeroext false)
  %14 = load ptr, ptr %lu.addr, align 8
  call void @llvm.memcpy.p0.p0.i64(ptr align 4 %14, ptr align 4 %ref.tmp14, i64 4, i1 false)
  %v17 = getelementptr inbounds %"struct.sat::cut_simplifier::bin_rel", ptr %this1, i32 0, i32 1
  %15 = load i32, ptr %v17, align 4
  call void @_ZN3sat7literalC2Ejb(ptr noundef nonnull align 4 dereferenceable(4) %ref.tmp16, i32 noundef %15, i1 noundef zeroext false)
  %16 = load ptr, ptr %lv.addr, align 8
  call void @llvm.memcpy.p0.p0.i64(ptr align 4 %16, ptr align 4 %ref.tmp16, i64 4, i1 false)
  br label %sw.epilog

sw.default:                                       ; preds = %entry
  call void @_Z26notify_assertion_violationPKciS0_(ptr noundef @.str.36, i32 noundef 109, ptr noundef @.str.37)
  call void @exit(i32 noundef 114) #15
  unreachable

sw.epilog:                                        ; preds = %sw.bb13, %sw.bb8, %sw.bb3, %sw.bb
  ret void
}

; Function Attrs: mustprogress nounwind uwtable
define linkonce_odr hidden void @_ZN3sat7literalC2Ev(ptr noundef nonnull align 4 dereferenceable(4) %this) unnamed_addr #4 comdat align 2 {
entry:
  %this.addr = alloca ptr, align 8
  store ptr %this, ptr %this.addr, align 8
  %this1 = load ptr, ptr %this.addr, align 8
  %m_val = getelementptr inbounds %"class.sat::literal", ptr %this1, i32 0, i32 0
  store i32 -2, ptr %m_val, align 4
  ret void
}

; Function Attrs: mustprogress uwtable
define hidden void @_ZN3sat14cut_simplifier12track_binaryERKNS0_7bin_relE(ptr noundef nonnull align 8 dereferenceable(600) %this, ptr noundef nonnull align 4 dereferenceable(12) %p) #5 align 2 {
entry:
  %this.addr = alloca ptr, align 8
  %p.addr = alloca ptr, align 8
  %u = alloca %"class.sat::literal", align 4
  %v = alloca %"class.sat::literal", align 4
  %agg.tmp = alloca %"class.sat::literal", align 4
  %agg.tmp2 = alloca %"class.sat::literal", align 4
  store ptr %this, ptr %this.addr, align 8
  store ptr %p, ptr %p.addr, align 8
  %this1 = load ptr, ptr %this.addr, align 8
  %s = getelementptr inbounds %"class.sat::cut_simplifier", ptr %this1, i32 0, i32 0
  %0 = load ptr, ptr %s, align 8
  %m_config = getelementptr inbounds %"class.sat::solver", ptr %0, i32 0, i32 3
  %m_drat = getelementptr inbounds %"struct.sat::config", ptr %m_config, i32 0, i32 96
  %1 = load i8, ptr %m_drat, align 8
  %tobool = trunc i8 %1 to i1
  br i1 %tobool, label %if.end, label %if.then

if.then:                                          ; preds = %entry
  br label %return

if.end:                                           ; preds = %entry
  call void @_ZN3sat7literalC2Ev(ptr noundef nonnull align 4 dereferenceable(4) %u)
  call void @_ZN3sat7literalC2Ev(ptr noundef nonnull align 4 dereferenceable(4) %v)
  %2 = load ptr, ptr %p.addr, align 8
  call void @_ZNK3sat14cut_simplifier7bin_rel9to_binaryERNS_7literalES3_(ptr noundef nonnull align 4 dereferenceable(12) %2, ptr noundef nonnull align 4 dereferenceable(4) %u, ptr noundef nonnull align 4 dereferenceable(4) %v)
  call void @llvm.memcpy.p0.p0.i64(ptr align 4 %agg.tmp, ptr align 4 %u, i64 4, i1 false)
  call void @llvm.memcpy.p0.p0.i64(ptr align 4 %agg.tmp2, ptr align 4 %v, i64 4, i1 false)
  %coerce.dive = getelementptr inbounds %"class.sat::literal", ptr %agg.tmp, i32 0, i32 0
  %3 = load i32, ptr %coerce.dive, align 4
  %coerce.dive3 = getelementptr inbounds %"class.sat::literal", ptr %agg.tmp2, i32 0, i32 0
  %4 = load i32, ptr %coerce.dive3, align 4
  call void @_ZN3sat14cut_simplifier12track_binaryENS_7literalES1_(ptr noundef nonnull align 8 dereferenceable(600) %this1, i32 %3, i32 %4)
  br label %return

return:                                           ; preds = %if.end, %if.then
  ret void
}