; Function Attrs: mustprogress uwtable
define hidden void @_ZN3sat14cut_simplifier12track_binaryERKNS0_7bin_relE(ptr nocapture noundef nonnull readonly align 8 dereferenceable(600) %this, ptr nocapture noundef nonnull readonly align 4 dereferenceable(12) %p) local_unnamed_addr #3 align 2 {
entry:
  %agg.tmp6.i = alloca %"class.sat::status", align 8
  %0 = load ptr, ptr %this, align 8
  %m_drat = getelementptr inbounds i8, ptr %0, i64 352
  %1 = load i8, ptr %m_drat, align 8
  %2 = and i8 %1, 1
  %tobool.not = icmp eq i8 %2, 0
  br i1 %tobool.not, label %return, label %if.end

if.end:                                           ; preds = %entry
  %op.i = getelementptr inbounds i8, ptr %p, i64 8
  %3 = load i32, ptr %op.i, align 4
  switch i32 %3, label %sw.default.i [
    i32 0, label %sw.bb.i
    i32 1, label %sw.bb3.i
    i32 2, label %sw.bb8.i
    i32 3, label %sw.bb13.i
  ]

sw.bb.i:                                          ; preds = %if.end
  %4 = load i32, ptr %p, align 4
  %shl.i.i = shl i32 %4, 1
  %add.i.i = or disjoint i32 %shl.i.i, 1
  %v.i = getelementptr inbounds i8, ptr %p, i64 4
  %5 = load i32, ptr %v.i, align 4
  %shl.i7.i = shl i32 %5, 1
  %add.i8.i = or disjoint i32 %shl.i7.i, 1
  br label %_ZN3sat14cut_simplifier12track_binaryENS_7literalES1_.exit

sw.bb3.i:                                         ; preds = %if.end
  %6 = load i32, ptr %p, align 4
  %shl.i9.i = shl i32 %6, 1
  %add.i10.i = or disjoint i32 %shl.i9.i, 1
  %v7.i = getelementptr inbounds i8, ptr %p, i64 4
  %7 = load i32, ptr %v7.i, align 4
  %shl.i11.i = shl i32 %7, 1
  br label %_ZN3sat14cut_simplifier12track_binaryENS_7literalES1_.exit

sw.bb8.i:                                         ; preds = %if.end
  %8 = load i32, ptr %p, align 4
  %shl.i12.i = shl i32 %8, 1
  %v12.i = getelementptr inbounds i8, ptr %p, i64 4
  %9 = load i32, ptr %v12.i, align 4
  %shl.i13.i = shl i32 %9, 1
  %add.i14.i = or disjoint i32 %shl.i13.i, 1
  br label %_ZN3sat14cut_simplifier12track_binaryENS_7literalES1_.exit

sw.bb13.i:                                        ; preds = %if.end
  %10 = load i32, ptr %p, align 4
  %shl.i15.i = shl i32 %10, 1
  %v17.i = getelementptr inbounds i8, ptr %p, i64 4
  %11 = load i32, ptr %v17.i, align 4
  %shl.i16.i = shl i32 %11, 1
  br label %_ZN3sat14cut_simplifier12track_binaryENS_7literalES1_.exit

sw.default.i:                                     ; preds = %if.end
  tail call void @_Z26notify_assertion_violationPKciS0_(ptr noundef nonnull @.str.36, i32 noundef 109, ptr noundef nonnull @.str.37)
  tail call void @exit(i32 noundef 114) #21
  unreachable

_ZN3sat14cut_simplifier12track_binaryENS_7literalES1_.exit: ; preds = %sw.bb.i, %sw.bb3.i, %sw.bb8.i, %sw.bb13.i
  %u.sroa.0.0 = phi i32 [ %shl.i15.i, %sw.bb13.i ], [ %shl.i12.i, %sw.bb8.i ], [ %add.i10.i, %sw.bb3.i ], [ %add.i.i, %sw.bb.i ]
  %shl.i16.sink.i = phi i32 [ %shl.i16.i, %sw.bb13.i ], [ %add.i14.i, %sw.bb8.i ], [ %shl.i11.i, %sw.bb3.i ], [ %add.i8.i, %sw.bb.i ]
  call void @llvm.lifetime.start.p0(i64 16, ptr nonnull %agg.tmp6.i)
  %m_drat4.i = getelementptr inbounds i8, ptr %0, i64 552
  store i32 2, ptr %agg.tmp6.i, align 8, !alias.scope !45
  %m_orig.i.i.i = getelementptr inbounds i8, ptr %agg.tmp6.i, i64 4
  store i32 -1, ptr %m_orig.i.i.i, align 4, !alias.scope !45
  %m_hint.i.i.i = getelementptr inbounds i8, ptr %agg.tmp6.i, i64 8
  store ptr null, ptr %m_hint.i.i.i, align 8, !alias.scope !45
  call void @_ZN3sat4drat3addENS_7literalES1_NS_6statusE(ptr noundef nonnull align 8 dereferenceable(664) %m_drat4.i, i32 %u.sroa.0.0, i32 %shl.i16.sink.i, ptr noundef nonnull %agg.tmp6.i)
  call void @llvm.lifetime.end.p0(i64 16, ptr nonnull %agg.tmp6.i)
  br label %return

return:                                           ; preds = %entry, %_ZN3sat14cut_simplifier12track_binaryENS_7literalES1_.exit
  ret void
}